; Function Attrs: mustprogress nounwind uwtable
define dso_local void @_ZN4llvm9LTOModule20addDefinedDataSymbolENS_9StringRefEPKNS_11GlobalValueE(ptr noundef nonnull align 8 dereferenceable(336) %0, ptr %1, i64 %2, ptr noundef %3) local_unnamed_addr #0 align 2 {
  tail call void @_ZN4llvm9LTOModule16addDefinedSymbolENS_9StringRefEPKNS_11GlobalValueEb(ptr noundef nonnull align 8 dereferenceable(336) %0, ptr %1, i64 %2, ptr noundef %3, i1 noundef zeroext false)
  %5 = tail call { ptr, i64 } @_ZNK4llvm11GlobalValue10getSectionEv(ptr noundef nonnull align 8 dereferenceable(48) %3) #17
  %6 = extractvalue { ptr, i64 } %5, 1
  %.not30 = icmp eq i64 %6, 0
  br i1 %.not30, label %_ZNK4llvm9StringRef11starts_withES0_.exit17.thread29, label %7

7:                                                ; preds = %4
  %8 = load i8, ptr %3, align 8
  %.not = icmp eq i8 %8, 3
  br i1 %.not, label %9, label %_ZNK4llvm9StringRef11starts_withES0_.exit17.thread29

9:                                                ; preds = %7
  %10 = getelementptr inbounds nuw i8, ptr %3, i64 32
  %11 = load i32, ptr %10, align 8
  %12 = and i32 %11, 67108864
  %.not.i = icmp eq i32 %12, 0
  br i1 %.not.i, label %_ZNK4llvm9StringRef11starts_withES0_.exit17.thread29, label %_ZNK4llvm12GlobalObject10getSectionEv.exit

_ZNK4llvm12GlobalObject10getSectionEv.exit:       ; preds = %9
  %13 = tail call { ptr, i64 } @_ZNK4llvm12GlobalObject14getSectionImplEv(ptr noundef nonnull align 8 dereferenceable(56) %3) #17
  %14 = extractvalue { ptr, i64 } %13, 0
  %15 = extractvalue { ptr, i64 } %13, 1
  %.not.i11 = icmp ult i64 %15, 15
  br i1 %.not.i11, label %_ZNK4llvm9StringRef11starts_withES0_.exit17.thread29, label %_ZNK4llvm9StringRef11starts_withES0_.exit

_ZNK4llvm9StringRef11starts_withES0_.exit:        ; preds = %_ZNK4llvm12GlobalObject10getSectionEv.exit
  %bcmp.i = tail call i32 @bcmp(ptr noundef nonnull dereferenceable(15) %14, ptr noundef nonnull dereferenceable(15) @.str.7, i64 15)
  %16 = icmp eq i32 %bcmp.i, 0
  br i1 %16, label %_ZNK4llvm9StringRef11starts_withES0_.exit.thread, label %_ZNK4llvm9StringRef11starts_withES0_.exit.thread27

_ZNK4llvm9StringRef11starts_withES0_.exit.thread: ; preds = %_ZNK4llvm9StringRef11starts_withES0_.exit
  tail call void @_ZN4llvm9LTOModule12addObjCClassEPKNS_14GlobalVariableE(ptr noundef nonnull align 8 dereferenceable(336) %0, ptr noundef nonnull %3)
  br label %_ZNK4llvm9StringRef11starts_withES0_.exit17.thread29

_ZNK4llvm9StringRef11starts_withES0_.exit.thread27: ; preds = %_ZNK4llvm9StringRef11starts_withES0_.exit
  %.not.i12 = icmp ult i64 %15, 18
  br i1 %.not.i12, label %_ZNK4llvm9StringRef11starts_withES0_.exit17.thread29, label %_ZNK4llvm9StringRef11starts_withES0_.exit14

_ZNK4llvm9StringRef11starts_withES0_.exit14:      ; preds = %_ZNK4llvm9StringRef11starts_withES0_.exit.thread27
  %bcmp.i13 = tail call i32 @bcmp(ptr noundef nonnull dereferenceable(18) %14, ptr noundef nonnull dereferenceable(18) @.str.8, i64 18)
  %17 = icmp eq i32 %bcmp.i13, 0
  br i1 %17, label %_ZNK4llvm9StringRef11starts_withES0_.exit14.thread, label %_ZNK4llvm9StringRef11starts_withES0_.exit17

_ZNK4llvm9StringRef11starts_withES0_.exit14.thread: ; preds = %_ZNK4llvm9StringRef11starts_withES0_.exit14
  tail call void @_ZN4llvm9LTOModule15addObjCCategoryEPKNS_14GlobalVariableE(ptr noundef nonnull align 8 dereferenceable(336) %0, ptr noundef nonnull %3)
  br label %_ZNK4llvm9StringRef11starts_withES0_.exit17.thread29

_ZNK4llvm9StringRef11starts_withES0_.exit17:      ; preds = %_ZNK4llvm9StringRef11starts_withES0_.exit14
  %bcmp.i16 = tail call i32 @bcmp(ptr noundef nonnull dereferenceable(18) %14, ptr noundef nonnull dereferenceable(18) @.str.9, i64 18)
  %18 = icmp eq i32 %bcmp.i16, 0
  br i1 %18, label %_ZNK4llvm9StringRef11starts_withES0_.exit17.thread, label %_ZNK4llvm9StringRef11starts_withES0_.exit17.thread29

_ZNK4llvm9StringRef11starts_withES0_.exit17.thread: ; preds = %_ZNK4llvm9StringRef11starts_withES0_.exit17
  tail call void @_ZN4llvm9LTOModule15addObjCClassRefEPKNS_14GlobalVariableE(ptr noundef nonnull align 8 dereferenceable(336) %0, ptr noundef nonnull %3)
  br label %_ZNK4llvm9StringRef11starts_withES0_.exit17.thread29

_ZNK4llvm9StringRef11starts_withES0_.exit17.thread29: ; preds = %_ZNK4llvm9StringRef11starts_withES0_.exit.thread27, %9, %_ZNK4llvm12GlobalObject10getSectionEv.exit, %_ZNK4llvm9StringRef11starts_withES0_.exit.thread, %_ZNK4llvm9StringRef11starts_withES0_.exit17, %_ZNK4llvm9StringRef11starts_withES0_.exit17.thread, %_ZNK4llvm9StringRef11starts_withES0_.exit14.thread, %4, %7
  ret void
}